target datalayout = "e-m:e-p270:32:32-p271:32:32-p272:64:64-i64:64-i128:128-f80:128-n8:16:32:64-S128"
target triple = "x86_64-unknown-linux-gnu"

%class.aiMatrix3x3t = type { float, float, float, float, float, float, float, float, float }

; Function Attrs: mustprogress nounwind uwtable
define linkonce_odr hidden noundef zeroext i1 @_ZNK12aiMatrix3x3tIfEeqERKS0_(ptr noundef nonnull align 4 dereferenceable(36) %this, ptr noundef nonnull align 4 dereferenceable(36) %m) #0 comdat align 2 {
entry:
  %this.addr = alloca ptr, align 8
  %m.addr = alloca ptr, align 8
  store ptr %this, ptr %this.addr, align 8
  store ptr %m, ptr %m.addr, align 8
  %this1 = load ptr, ptr %this.addr, align 8
  %a1 = getelementptr inbounds %class.aiMatrix3x3t, ptr %this1, i32 0, i32 0
  %0 = load float, ptr %a1, align 4
  %1 = load ptr, ptr %m.addr, align 8
  %a12 = getelementptr inbounds %class.aiMatrix3x3t, ptr %1, i32 0, i32 0
  %2 = load float, ptr %a12, align 4
  %cmp = fcmp oeq float %0, %2
  br i1 %cmp, label %land.lhs.true, label %land.end

land.lhs.true:                                    ; preds = %entry
  %a2 = getelementptr inbounds %class.aiMatrix3x3t, ptr %this1, i32 0, i32 1
  %3 = load float, ptr %a2, align 4
  %4 = load ptr, ptr %m.addr, align 8
  %a23 = getelementptr inbounds %class.aiMatrix3x3t, ptr %4, i32 0, i32 1
  %5 = load float, ptr %a23, align 4
  %cmp4 = fcmp oeq float %3, %5
  br i1 %cmp4, label %land.lhs.true5, label %land.end

land.lhs.true5:                                   ; preds = %land.lhs.true
  %a3 = getelementptr inbounds %class.aiMatrix3x3t, ptr %this1, i32 0, i32 2
  %6 = load float, ptr %a3, align 4
  %7 = load ptr, ptr %m.addr, align 8
  %a36 = getelementptr inbounds %class.aiMatrix3x3t, ptr %7, i32 0, i32 2
  %8 = load float, ptr %a36, align 4
  %cmp7 = fcmp oeq float %6, %8
  br i1 %cmp7, label %land.lhs.true8, label %land.end

land.lhs.true8:                                   ; preds = %land.lhs.true5
  %b1 = getelementptr inbounds %class.aiMatrix3x3t, ptr %this1, i32 0, i32 3
  %9 = load float, ptr %b1, align 4
  %10 = load ptr, ptr %m.addr, align 8
  %b19 = getelementptr inbounds %class.aiMatrix3x3t, ptr %10, i32 0, i32 3
  %11 = load float, ptr %b19, align 4
  %cmp10 = fcmp oeq float %9, %11
  br i1 %cmp10, label %land.lhs.true11, label %land.end

land.lhs.true11:                                  ; preds = %land.lhs.true8
  %b2 = getelementptr inbounds %class.aiMatrix3x3t, ptr %this1, i32 0, i32 4
  %12 = load float, ptr %b2, align 4
  %13 = load ptr, ptr %m.addr, align 8
  %b212 = getelementptr inbounds %class.aiMatrix3x3t, ptr %13, i32 0, i32 4
  %14 = load float, ptr %b212, align 4
  %cmp13 = fcmp oeq float %12, %14
  br i1 %cmp13, label %land.lhs.true14, label %land.end

land.lhs.true14:                                  ; preds = %land.lhs.true11
  %b3 = getelementptr inbounds %class.aiMatrix3x3t, ptr %this1, i32 0, i32 5
  %15 = load float, ptr %b3, align 4
  %16 = load ptr, ptr %m.addr, align 8
  %b315 = getelementptr inbounds %class.aiMatrix3x3t, ptr %16, i32 0, i32 5
  %17 = load float, ptr %b315, align 4
  %cmp16 = fcmp oeq float %15, %17
  br i1 %cmp16, label %land.lhs.true17, label %land.end

land.lhs.true17:                                  ; preds = %land.lhs.true14
  %c1 = getelementptr inbounds %class.aiMatrix3x3t, ptr %this1, i32 0, i32 6
  %18 = load float, ptr %c1, align 4
  %19 = load ptr, ptr %m.addr, align 8
  %c118 = getelementptr inbounds %class.aiMatrix3x3t, ptr %19, i32 0, i32 6
  %20 = load float, ptr %c118, align 4
  %cmp19 = fcmp oeq float %18, %20
  br i1 %cmp19, label %land.lhs.true20, label %land.end

land.lhs.true20:                                  ; preds = %land.lhs.true17
  %c2 = getelementptr inbounds %class.aiMatrix3x3t, ptr %this1, i32 0, i32 7
  %21 = load float, ptr %c2, align 4
  %22 = load ptr, ptr %m.addr, align 8
  %c221 = getelementptr inbounds %class.aiMatrix3x3t, ptr %22, i32 0, i32 7
  %23 = load float, ptr %c221, align 4
  %cmp22 = fcmp oeq float %21, %23
  br i1 %cmp22, label %land.rhs, label %land.end

land.rhs:                                         ; preds = %land.lhs.true20
  %c3 = getelementptr inbounds %class.aiMatrix3x3t, ptr %this1, i32 0, i32 8
  %24 = load float, ptr %c3, align 4
  %25 = load ptr, ptr %m.addr, align 8
  %c323 = getelementptr inbounds %class.aiMatrix3x3t, ptr %25, i32 0, i32 8
  %26 = load float, ptr %c323, align 4
  %cmp24 = fcmp oeq float %24, %26
  br label %land.end

land.end:                                         ; preds = %land.rhs, %land.lhs.true20, %land.lhs.true17, %land.lhs.true14, %land.lhs.true11, %land.lhs.true8, %land.lhs.true5, %land.lhs.true, %entry
  %27 = phi i1 [ false, %land.lhs.true20 ], [ false, %land.lhs.true17 ], [ false, %land.lhs.true14 ], [ false, %land.lhs.true11 ], [ false, %land.lhs.true8 ], [ false, %land.lhs.true5 ], [ false, %land.lhs.true ], [ false, %entry ], [ %cmp24, %land.rhs ]
  ret i1 %27
}

; Function Attrs: mustprogress uwtable
define i32 @aiMatrix3AreEqual(ptr noundef %a, ptr noundef %b) #5 {
entry:
  %a.addr = alloca ptr, align 8
  %b.addr = alloca ptr, align 8
  store ptr %a, ptr %a.addr, align 8
  store ptr %b, ptr %b.addr, align 8
  %0 = load ptr, ptr %a.addr, align 8
  %1 = load ptr, ptr %b.addr, align 8
  %call = call noundef zeroext i1 @_ZNK12aiMatrix3x3tIfEeqERKS0_(ptr noundef nonnull align 4 dereferenceable(36) %0, ptr noundef nonnull align 4 dereferenceable(36) %1)
  %conv = zext i1 %call to i32
  ret i32 %conv
}