; Function Attrs: mustprogress nofree norecurse nosync nounwind willreturn memory(argmem: read) uwtable
define i32 @aiMatrix3AreEqual(ptr nocapture noundef readonly %a, ptr nocapture noundef readonly %b) local_unnamed_addr #15 {
entry:
  %0 = load float, ptr %a, align 4
  %1 = load float, ptr %b, align 4
  %cmp.i = fcmp oeq float %0, %1
  br i1 %cmp.i, label %land.lhs.true.i, label %_ZNK12aiMatrix3x3tIfEeqERKS0_.exit

land.lhs.true.i:                                  ; preds = %entry
  %a2.i = getelementptr inbounds i8, ptr %a, i64 4
  %2 = load float, ptr %a2.i, align 4
  %a23.i = getelementptr inbounds i8, ptr %b, i64 4
  %3 = load float, ptr %a23.i, align 4
  %cmp4.i = fcmp oeq float %2, %3
  br i1 %cmp4.i, label %land.lhs.true5.i, label %_ZNK12aiMatrix3x3tIfEeqERKS0_.exit

land.lhs.true5.i:                                 ; preds = %land.lhs.true.i
  %a3.i = getelementptr inbounds i8, ptr %a, i64 8
  %4 = load float, ptr %a3.i, align 4
  %a36.i = getelementptr inbounds i8, ptr %b, i64 8
  %5 = load float, ptr %a36.i, align 4
  %cmp7.i = fcmp oeq float %4, %5
  br i1 %cmp7.i, label %land.lhs.true8.i, label %_ZNK12aiMatrix3x3tIfEeqERKS0_.exit

land.lhs.true8.i:                                 ; preds = %land.lhs.true5.i
  %b1.i = getelementptr inbounds i8, ptr %a, i64 12
  %6 = load float, ptr %b1.i, align 4
  %b19.i = getelementptr inbounds i8, ptr %b, i64 12
  %7 = load float, ptr %b19.i, align 4
  %cmp10.i = fcmp oeq float %6, %7
  br i1 %cmp10.i, label %land.lhs.true11.i, label %_ZNK12aiMatrix3x3tIfEeqERKS0_.exit

land.lhs.true11.i:                                ; preds = %land.lhs.true8.i
  %b2.i = getelementptr inbounds i8, ptr %a, i64 16
  %8 = load float, ptr %b2.i, align 4
  %b212.i = getelementptr inbounds i8, ptr %b, i64 16
  %9 = load float, ptr %b212.i, align 4
  %cmp13.i = fcmp oeq float %8, %9
  br i1 %cmp13.i, label %land.lhs.true14.i, label %_ZNK12aiMatrix3x3tIfEeqERKS0_.exit

land.lhs.true14.i:                                ; preds = %land.lhs.true11.i
  %b3.i = getelementptr inbounds i8, ptr %a, i64 20
  %10 = load float, ptr %b3.i, align 4
  %b315.i = getelementptr inbounds i8, ptr %b, i64 20
  %11 = load float, ptr %b315.i, align 4
  %cmp16.i = fcmp oeq float %10, %11
  br i1 %cmp16.i, label %land.lhs.true17.i, label %_ZNK12aiMatrix3x3tIfEeqERKS0_.exit

land.lhs.true17.i:                                ; preds = %land.lhs.true14.i
  %c1.i = getelementptr inbounds i8, ptr %a, i64 24
  %12 = load float, ptr %c1.i, align 4
  %c118.i = getelementptr inbounds i8, ptr %b, i64 24
  %13 = load float, ptr %c118.i, align 4
  %cmp19.i = fcmp oeq float %12, %13
  br i1 %cmp19.i, label %land.lhs.true20.i, label %_ZNK12aiMatrix3x3tIfEeqERKS0_.exit

land.lhs.true20.i:                                ; preds = %land.lhs.true17.i
  %c2.i = getelementptr inbounds i8, ptr %a, i64 28
  %14 = load float, ptr %c2.i, align 4
  %c221.i = getelementptr inbounds i8, ptr %b, i64 28
  %15 = load float, ptr %c221.i, align 4
  %cmp22.i = fcmp oeq float %14, %15
  br i1 %cmp22.i, label %land.rhs.i, label %_ZNK12aiMatrix3x3tIfEeqERKS0_.exit

land.rhs.i:                                       ; preds = %land.lhs.true20.i
  %c3.i = getelementptr inbounds i8, ptr %a, i64 32
  %16 = load float, ptr %c3.i, align 4
  %c323.i = getelementptr inbounds i8, ptr %b, i64 32
  %17 = load float, ptr %c323.i, align 4
  %cmp24.i = fcmp oeq float %16, %17
  %18 = zext i1 %cmp24.i to i32
  br label %_ZNK12aiMatrix3x3tIfEeqERKS0_.exit

_ZNK12aiMatrix3x3tIfEeqERKS0_.exit:               ; preds = %entry, %land.lhs.true.i, %land.lhs.true5.i, %land.lhs.true8.i, %land.lhs.true11.i, %land.lhs.true14.i, %land.lhs.true17.i, %land.lhs.true20.i, %land.rhs.i
  %conv = phi i32 [ 0, %land.lhs.true20.i ], [ 0, %land.lhs.true17.i ], [ 0, %land.lhs.true14.i ], [ 0, %land.lhs.true11.i ], [ 0, %land.lhs.true8.i ], [ 0, %land.lhs.true5.i ], [ 0, %land.lhs.true.i ], [ 0, %entry ], [ %18, %land.rhs.i ]
  ret i32 %conv
}